(dp0
S'cloning_data'
p1
(dp2
S'2017-08-28'
p3
(dp4
Vcount
p5
I5
sVclones
p6
(lp7
(dp8
Vcount
p9
I1
sVtimestamp
p10
V2017-08-15T00:00:00Z
p11
sVuniques
p12
I1
sa(dp13
Vcount
p14
I1
sVtimestamp
p15
V2017-08-17T00:00:00Z
p16
sVuniques
p17
I1
sa(dp18
Vcount
p19
I1
sVtimestamp
p20
V2017-08-21T00:00:00Z
p21
sVuniques
p22
I1
sa(dp23
Vcount
p24
I1
sVtimestamp
p25
V2017-08-24T00:00:00Z
p26
sVuniques
p27
I1
sa(dp28
Vcount
p29
I1
sVtimestamp
p30
V2017-08-28T00:00:00Z
p31
sVuniques
p32
I1
sasVuniques
p33
I5
ssS'2017-08-30'
p34
(dp35
Vcount
p36
I5
sVclones
p37
(lp38
(dp39
Vcount
p40
I1
sVtimestamp
p41
V2017-08-17T00:00:00Z
p42
sVuniques
p43
I1
sa(dp44
Vcount
p45
I1
sVtimestamp
p46
V2017-08-21T00:00:00Z
p47
sVuniques
p48
I1
sa(dp49
Vcount
p50
I1
sVtimestamp
p51
V2017-08-24T00:00:00Z
p52
sVuniques
p53
I1
sa(dp54
Vcount
p55
I1
sVtimestamp
p56
V2017-08-28T00:00:00Z
p57
sVuniques
p58
I1
sa(dp59
Vcount
p60
I1
sVtimestamp
p61
V2017-08-29T00:00:00Z
p62
sVuniques
p63
I1
sasVuniques
p64
I5
ssS'2017-08-24'
p65
(dp66
Vcount
p67
I5
sVclones
p68
(lp69
(dp70
Vcount
p71
I2
sVtimestamp
p72
V2017-08-14T00:00:00Z
p73
sVuniques
p74
I1
sa(dp75
Vcount
p76
I1
sVtimestamp
p77
V2017-08-15T00:00:00Z
p78
sVuniques
p79
I1
sa(dp80
Vcount
p81
I1
sVtimestamp
p82
V2017-08-17T00:00:00Z
p83
sVuniques
p84
I1
sa(dp85
Vcount
p86
I1
sVtimestamp
p87
V2017-08-21T00:00:00Z
p88
sVuniques
p89
I1
sasVuniques
p90
I3
ssS'2017-08-25'
p91
(dp92
Vcount
p93
I6
sVclones
p94
(lp95
(dp96
Vcount
p97
I2
sVtimestamp
p98
V2017-08-14T00:00:00Z
p99
sVuniques
p100
I1
sa(dp101
Vcount
p102
I1
sVtimestamp
p103
V2017-08-15T00:00:00Z
p104
sVuniques
p105
I1
sa(dp106
Vcount
p107
I1
sVtimestamp
p108
V2017-08-17T00:00:00Z
p109
sVuniques
p110
I1
sa(dp111
Vcount
p112
I1
sVtimestamp
p113
V2017-08-21T00:00:00Z
p114
sVuniques
p115
I1
sa(dp116
Vcount
p117
I1
sVtimestamp
p118
V2017-08-24T00:00:00Z
p119
sVuniques
p120
I1
sasVuniques
p121
I4
ssS'2017-09-08'
p122
(dp123
Vcount
p124
I8
sVclones
p125
(lp126
(dp127
Vcount
p128
I1
sVtimestamp
p129
V2017-08-28T00:00:00Z
p130
sVuniques
p131
I1
sa(dp132
Vcount
p133
I1
sVtimestamp
p134
V2017-08-29T00:00:00Z
p135
sVuniques
p136
I1
sa(dp137
Vcount
p138
I2
sVtimestamp
p139
V2017-08-31T00:00:00Z
p140
sVuniques
p141
I2
sa(dp142
Vcount
p143
I1
sVtimestamp
p144
V2017-09-02T00:00:00Z
p145
sVuniques
p146
I1
sa(dp147
Vcount
p148
I2
sVtimestamp
p149
V2017-09-05T00:00:00Z
p150
sVuniques
p151
I2
sa(dp152
Vcount
p153
I1
sVtimestamp
p154
V2017-09-07T00:00:00Z
p155
sVuniques
p156
I1
sasVuniques
p157
I8
ssS'2017-08-23'
p158
(dp159
Vcount
p160
I5
sVclones
p161
(lp162
(dp163
Vcount
p164
I2
sVtimestamp
p165
V2017-08-14T00:00:00Z
p166
sVuniques
p167
I1
sa(dp168
Vcount
p169
I1
sVtimestamp
p170
V2017-08-15T00:00:00Z
p171
sVuniques
p172
I1
sa(dp173
Vcount
p174
I1
sVtimestamp
p175
V2017-08-17T00:00:00Z
p176
sVuniques
p177
I1
sa(dp178
Vcount
p179
I1
sVtimestamp
p180
V2017-08-21T00:00:00Z
p181
sVuniques
p182
I1
sasVuniques
p183
I3
ssS'2017-09-05'
p184
(dp185
Vdocumentation_url
p186
Vhttps://developer.github.com/v3
p187
sVmessage
p188
VBad credentials
p189
ssS'2017-09-07'
p190
(dp191
Vcount
p192
I8
sVclones
p193
(lp194
(dp195
Vcount
p196
I1
sVtimestamp
p197
V2017-08-24T00:00:00Z
p198
sVuniques
p199
I1
sa(dp200
Vcount
p201
I1
sVtimestamp
p202
V2017-08-28T00:00:00Z
p203
sVuniques
p204
I1
sa(dp205
Vcount
p206
I1
sVtimestamp
p207
V2017-08-29T00:00:00Z
p208
sVuniques
p209
I1
sa(dp210
Vcount
p211
I2
sVtimestamp
p212
V2017-08-31T00:00:00Z
p213
sVuniques
p214
I2
sa(dp215
Vcount
p216
I1
sVtimestamp
p217
V2017-09-02T00:00:00Z
p218
sVuniques
p219
I1
sa(dp220
Vcount
p221
I2
sVtimestamp
p222
V2017-09-05T00:00:00Z
p223
sVuniques
p224
I2
sasVuniques
p225
I7
ssS'2017-09-06'
p226
(dp227
Vcount
p228
I8
sVclones
p229
(lp230
(dp231
Vcount
p232
I1
sVtimestamp
p233
V2017-08-24T00:00:00Z
p234
sVuniques
p235
I1
sa(dp236
Vcount
p237
I1
sVtimestamp
p238
V2017-08-28T00:00:00Z
p239
sVuniques
p240
I1
sa(dp241
Vcount
p242
I1
sVtimestamp
p243
V2017-08-29T00:00:00Z
p244
sVuniques
p245
I1
sa(dp246
Vcount
p247
I2
sVtimestamp
p248
V2017-08-31T00:00:00Z
p249
sVuniques
p250
I2
sa(dp251
Vcount
p252
I1
sVtimestamp
p253
V2017-09-02T00:00:00Z
p254
sVuniques
p255
I1
sa(dp256
Vcount
p257
I2
sVtimestamp
p258
V2017-09-05T00:00:00Z
p259
sVuniques
p260
I2
sasVuniques
p261
I7
ssS'2017-09-01'
p262
(dp263
Vcount
p264
I6
sVclones
p265
(lp266
(dp267
Vcount
p268
I1
sVtimestamp
p269
V2017-08-21T00:00:00Z
p270
sVuniques
p271
I1
sa(dp272
Vcount
p273
I1
sVtimestamp
p274
V2017-08-24T00:00:00Z
p275
sVuniques
p276
I1
sa(dp277
Vcount
p278
I1
sVtimestamp
p279
V2017-08-28T00:00:00Z
p280
sVuniques
p281
I1
sa(dp282
Vcount
p283
I1
sVtimestamp
p284
V2017-08-29T00:00:00Z
p285
sVuniques
p286
I1
sa(dp287
Vcount
p288
I2
sVtimestamp
p289
V2017-08-31T00:00:00Z
p290
sVuniques
p291
I2
sasVuniques
p292
I5
ssS'2017-08-29'
p293
(dp294
Vcount
p295
I5
sVclones
p296
(lp297
(dp298
Vcount
p299
I1
sVtimestamp
p300
V2017-08-17T00:00:00Z
p301
sVuniques
p302
I1
sa(dp303
Vcount
p304
I1
sVtimestamp
p305
V2017-08-21T00:00:00Z
p306
sVuniques
p307
I1
sa(dp308
Vcount
p309
I1
sVtimestamp
p310
V2017-08-24T00:00:00Z
p311
sVuniques
p312
I1
sa(dp313
Vcount
p314
I1
sVtimestamp
p315
V2017-08-28T00:00:00Z
p316
sVuniques
p317
I1
sa(dp318
Vcount
p319
I1
sVtimestamp
p320
V2017-08-29T00:00:00Z
p321
sVuniques
p322
I1
sasVuniques
p323
I5
ssS'2017-09-03'
p324
(dp325
Vcount
p326
I7
sVclones
p327
(lp328
(dp329
Vcount
p330
I1
sVtimestamp
p331
V2017-08-21T00:00:00Z
p332
sVuniques
p333
I1
sa(dp334
Vcount
p335
I1
sVtimestamp
p336
V2017-08-24T00:00:00Z
p337
sVuniques
p338
I1
sa(dp339
Vcount
p340
I1
sVtimestamp
p341
V2017-08-28T00:00:00Z
p342
sVuniques
p343
I1
sa(dp344
Vcount
p345
I1
sVtimestamp
p346
V2017-08-29T00:00:00Z
p347
sVuniques
p348
I1
sa(dp349
Vcount
p350
I2
sVtimestamp
p351
V2017-08-31T00:00:00Z
p352
sVuniques
p353
I2
sa(dp354
Vcount
p355
I1
sVtimestamp
p356
V2017-09-02T00:00:00Z
p357
sVuniques
p358
I1
sasVuniques
p359
I6
sssS'release_data'
p360
(dp361
S'latest'
p362
(dp363
Vbody
p364
VRecently, h5py has changed some of the arguments to open a file.  WESTPA has been updated to support this.
p365
sVassets_url
p366
Vhttps://api.github.com/repos/westpa/westpa/releases/7230822/assets
p367
sVname
p368
Vv2017.07: Fixes for h5py Anaconda 2-4.4.0
p369
sVpublished_at
p370
V2017-07-31T16:21:59Z
p371
sVauthor
p372
(dp373
Vfollowing_url
p374
Vhttps://api.github.com/users/ajoshpratt/following{/other_user}
p375
sVevents_url
p376
Vhttps://api.github.com/users/ajoshpratt/events{/privacy}
p377
sVorganizations_url
p378
Vhttps://api.github.com/users/ajoshpratt/orgs
p379
sVurl
p380
Vhttps://api.github.com/users/ajoshpratt
p381
sVgists_url
p382
Vhttps://api.github.com/users/ajoshpratt/gists{/gist_id}
p383
sVhtml_url
p384
Vhttps://github.com/ajoshpratt
p385
sVsubscriptions_url
p386
Vhttps://api.github.com/users/ajoshpratt/subscriptions
p387
sVavatar_url
p388
Vhttps://avatars0.githubusercontent.com/u/9011779?v=4
p389
sVrepos_url
p390
Vhttps://api.github.com/users/ajoshpratt/repos
p391
sVreceived_events_url
p392
Vhttps://api.github.com/users/ajoshpratt/received_events
p393
sVgravatar_id
p394
V
p395
sVstarred_url
p396
Vhttps://api.github.com/users/ajoshpratt/starred{/owner}{/repo}
p397
sVsite_admin
p398
I00
sVlogin
p399
Vajoshpratt
p400
sVtype
p401
VUser
p402
sVid
p403
I9011779
sVfollowers_url
p404
Vhttps://api.github.com/users/ajoshpratt/followers
p405
ssVurl
p406
Vhttps://api.github.com/repos/westpa/westpa/releases/7230822
p407
sVcreated_at
p408
V2017-07-27T14:52:21Z
p409
sVtarget_commitish
p410
Vmaster
p411
sVtarball_url
p412
Vhttps://api.github.com/repos/westpa/westpa/tarball/v2017.07
p413
sVhtml_url
p414
Vhttps://github.com/westpa/westpa/releases/tag/v2017.07
p415
sVzipball_url
p416
Vhttps://api.github.com/repos/westpa/westpa/zipball/v2017.07
p417
sVtag_name
p418
Vv2017.07
p419
sVdraft
p420
I00
sVprerelease
p421
I00
sVupload_url
p422
Vhttps://uploads.github.com/repos/westpa/westpa/releases/7230822/assets{?name,label}
p423
sS'data_updated'
p424
g122
sVid
p425
I7230822
sVassets
p426
(lp427
sss.