(dp0
S'cloning_data'
p1
(dp2
S'2017-08-28'
p3
(dp4
Vcount
p5
I5
sVclones
p6
(lp7
(dp8
Vcount
p9
I1
sVtimestamp
p10
V2017-08-15T00:00:00Z
p11
sVuniques
p12
I1
sa(dp13
Vcount
p14
I1
sVtimestamp
p15
V2017-08-17T00:00:00Z
p16
sVuniques
p17
I1
sa(dp18
Vcount
p19
I1
sVtimestamp
p20
V2017-08-21T00:00:00Z
p21
sVuniques
p22
I1
sa(dp23
Vcount
p24
I1
sVtimestamp
p25
V2017-08-24T00:00:00Z
p26
sVuniques
p27
I1
sa(dp28
Vcount
p29
I1
sVtimestamp
p30
V2017-08-28T00:00:00Z
p31
sVuniques
p32
I1
sasVuniques
p33
I5
ssS'2017-08-30'
p34
(dp35
Vcount
p36
I5
sVclones
p37
(lp38
(dp39
Vcount
p40
I1
sVtimestamp
p41
V2017-08-17T00:00:00Z
p42
sVuniques
p43
I1
sa(dp44
Vcount
p45
I1
sVtimestamp
p46
V2017-08-21T00:00:00Z
p47
sVuniques
p48
I1
sa(dp49
Vcount
p50
I1
sVtimestamp
p51
V2017-08-24T00:00:00Z
p52
sVuniques
p53
I1
sa(dp54
Vcount
p55
I1
sVtimestamp
p56
V2017-08-28T00:00:00Z
p57
sVuniques
p58
I1
sa(dp59
Vcount
p60
I1
sVtimestamp
p61
V2017-08-29T00:00:00Z
p62
sVuniques
p63
I1
sasVuniques
p64
I5
ssS'2017-08-24'
p65
(dp66
Vcount
p67
I5
sVclones
p68
(lp69
(dp70
Vcount
p71
I2
sVtimestamp
p72
V2017-08-14T00:00:00Z
p73
sVuniques
p74
I1
sa(dp75
Vcount
p76
I1
sVtimestamp
p77
V2017-08-15T00:00:00Z
p78
sVuniques
p79
I1
sa(dp80
Vcount
p81
I1
sVtimestamp
p82
V2017-08-17T00:00:00Z
p83
sVuniques
p84
I1
sa(dp85
Vcount
p86
I1
sVtimestamp
p87
V2017-08-21T00:00:00Z
p88
sVuniques
p89
I1
sasVuniques
p90
I3
ssS'2017-08-25'
p91
(dp92
Vcount
p93
I6
sVclones
p94
(lp95
(dp96
Vcount
p97
I2
sVtimestamp
p98
V2017-08-14T00:00:00Z
p99
sVuniques
p100
I1
sa(dp101
Vcount
p102
I1
sVtimestamp
p103
V2017-08-15T00:00:00Z
p104
sVuniques
p105
I1
sa(dp106
Vcount
p107
I1
sVtimestamp
p108
V2017-08-17T00:00:00Z
p109
sVuniques
p110
I1
sa(dp111
Vcount
p112
I1
sVtimestamp
p113
V2017-08-21T00:00:00Z
p114
sVuniques
p115
I1
sa(dp116
Vcount
p117
I1
sVtimestamp
p118
V2017-08-24T00:00:00Z
p119
sVuniques
p120
I1
sasVuniques
p121
I4
ssS'2017-08-23'
p122
(dp123
Vcount
p124
I5
sVclones
p125
(lp126
(dp127
Vcount
p128
I2
sVtimestamp
p129
V2017-08-14T00:00:00Z
p130
sVuniques
p131
I1
sa(dp132
Vcount
p133
I1
sVtimestamp
p134
V2017-08-15T00:00:00Z
p135
sVuniques
p136
I1
sa(dp137
Vcount
p138
I1
sVtimestamp
p139
V2017-08-17T00:00:00Z
p140
sVuniques
p141
I1
sa(dp142
Vcount
p143
I1
sVtimestamp
p144
V2017-08-21T00:00:00Z
p145
sVuniques
p146
I1
sasVuniques
p147
I3
ssS'2017-09-05'
p148
(dp149
Vdocumentation_url
p150
Vhttps://developer.github.com/v3
p151
sVmessage
p152
VBad credentials
p153
ssS'2017-09-06'
p154
(dp155
Vcount
p156
I8
sVclones
p157
(lp158
(dp159
Vcount
p160
I1
sVtimestamp
p161
V2017-08-24T00:00:00Z
p162
sVuniques
p163
I1
sa(dp164
Vcount
p165
I1
sVtimestamp
p166
V2017-08-28T00:00:00Z
p167
sVuniques
p168
I1
sa(dp169
Vcount
p170
I1
sVtimestamp
p171
V2017-08-29T00:00:00Z
p172
sVuniques
p173
I1
sa(dp174
Vcount
p175
I2
sVtimestamp
p176
V2017-08-31T00:00:00Z
p177
sVuniques
p178
I2
sa(dp179
Vcount
p180
I1
sVtimestamp
p181
V2017-09-02T00:00:00Z
p182
sVuniques
p183
I1
sa(dp184
Vcount
p185
I2
sVtimestamp
p186
V2017-09-05T00:00:00Z
p187
sVuniques
p188
I2
sasVuniques
p189
I7
ssS'2017-09-01'
p190
(dp191
Vcount
p192
I6
sVclones
p193
(lp194
(dp195
Vcount
p196
I1
sVtimestamp
p197
V2017-08-21T00:00:00Z
p198
sVuniques
p199
I1
sa(dp200
Vcount
p201
I1
sVtimestamp
p202
V2017-08-24T00:00:00Z
p203
sVuniques
p204
I1
sa(dp205
Vcount
p206
I1
sVtimestamp
p207
V2017-08-28T00:00:00Z
p208
sVuniques
p209
I1
sa(dp210
Vcount
p211
I1
sVtimestamp
p212
V2017-08-29T00:00:00Z
p213
sVuniques
p214
I1
sa(dp215
Vcount
p216
I2
sVtimestamp
p217
V2017-08-31T00:00:00Z
p218
sVuniques
p219
I2
sasVuniques
p220
I5
ssS'2017-08-29'
p221
(dp222
Vcount
p223
I5
sVclones
p224
(lp225
(dp226
Vcount
p227
I1
sVtimestamp
p228
V2017-08-17T00:00:00Z
p229
sVuniques
p230
I1
sa(dp231
Vcount
p232
I1
sVtimestamp
p233
V2017-08-21T00:00:00Z
p234
sVuniques
p235
I1
sa(dp236
Vcount
p237
I1
sVtimestamp
p238
V2017-08-24T00:00:00Z
p239
sVuniques
p240
I1
sa(dp241
Vcount
p242
I1
sVtimestamp
p243
V2017-08-28T00:00:00Z
p244
sVuniques
p245
I1
sa(dp246
Vcount
p247
I1
sVtimestamp
p248
V2017-08-29T00:00:00Z
p249
sVuniques
p250
I1
sasVuniques
p251
I5
ssS'2017-09-03'
p252
(dp253
Vcount
p254
I7
sVclones
p255
(lp256
(dp257
Vcount
p258
I1
sVtimestamp
p259
V2017-08-21T00:00:00Z
p260
sVuniques
p261
I1
sa(dp262
Vcount
p263
I1
sVtimestamp
p264
V2017-08-24T00:00:00Z
p265
sVuniques
p266
I1
sa(dp267
Vcount
p268
I1
sVtimestamp
p269
V2017-08-28T00:00:00Z
p270
sVuniques
p271
I1
sa(dp272
Vcount
p273
I1
sVtimestamp
p274
V2017-08-29T00:00:00Z
p275
sVuniques
p276
I1
sa(dp277
Vcount
p278
I2
sVtimestamp
p279
V2017-08-31T00:00:00Z
p280
sVuniques
p281
I2
sa(dp282
Vcount
p283
I1
sVtimestamp
p284
V2017-09-02T00:00:00Z
p285
sVuniques
p286
I1
sasVuniques
p287
I6
sssS'release_data'
p288
(dp289
S'latest'
p290
(dp291
Vbody
p292
VRecently, h5py has changed some of the arguments to open a file.  WESTPA has been updated to support this.
p293
sVassets_url
p294
Vhttps://api.github.com/repos/westpa/westpa/releases/7230822/assets
p295
sVname
p296
Vv2017.07: Fixes for h5py Anaconda 2-4.4.0
p297
sVpublished_at
p298
V2017-07-31T16:21:59Z
p299
sVauthor
p300
(dp301
Vfollowing_url
p302
Vhttps://api.github.com/users/ajoshpratt/following{/other_user}
p303
sVevents_url
p304
Vhttps://api.github.com/users/ajoshpratt/events{/privacy}
p305
sVorganizations_url
p306
Vhttps://api.github.com/users/ajoshpratt/orgs
p307
sVurl
p308
Vhttps://api.github.com/users/ajoshpratt
p309
sVgists_url
p310
Vhttps://api.github.com/users/ajoshpratt/gists{/gist_id}
p311
sVhtml_url
p312
Vhttps://github.com/ajoshpratt
p313
sVsubscriptions_url
p314
Vhttps://api.github.com/users/ajoshpratt/subscriptions
p315
sVavatar_url
p316
Vhttps://avatars0.githubusercontent.com/u/9011779?v=4
p317
sVrepos_url
p318
Vhttps://api.github.com/users/ajoshpratt/repos
p319
sVreceived_events_url
p320
Vhttps://api.github.com/users/ajoshpratt/received_events
p321
sVgravatar_id
p322
V
p323
sVstarred_url
p324
Vhttps://api.github.com/users/ajoshpratt/starred{/owner}{/repo}
p325
sVsite_admin
p326
I00
sVlogin
p327
Vajoshpratt
p328
sVtype
p329
VUser
p330
sVid
p331
I9011779
sVfollowers_url
p332
Vhttps://api.github.com/users/ajoshpratt/followers
p333
ssVurl
p334
Vhttps://api.github.com/repos/westpa/westpa/releases/7230822
p335
sVcreated_at
p336
V2017-07-27T14:52:21Z
p337
sVtarget_commitish
p338
Vmaster
p339
sVtarball_url
p340
Vhttps://api.github.com/repos/westpa/westpa/tarball/v2017.07
p341
sVhtml_url
p342
Vhttps://github.com/westpa/westpa/releases/tag/v2017.07
p343
sVzipball_url
p344
Vhttps://api.github.com/repos/westpa/westpa/zipball/v2017.07
p345
sVtag_name
p346
Vv2017.07
p347
sVdraft
p348
I00
sVprerelease
p349
I00
sVupload_url
p350
Vhttps://uploads.github.com/repos/westpa/westpa/releases/7230822/assets{?name,label}
p351
sS'data_updated'
p352
S'2017-09-06'
p353
sVid
p354
I7230822
sVassets
p355
(lp356
sss.